; Function Attrs: mustprogress uwtable
define hidden void @_ZNK4cvc58internal6theory11quantifiers14QueryGenerator13ensureBooleanERKNS0_12NodeTemplateILb1EEE(ptr nocapture nonnull readnone align 8 %this, ptr noundef nonnull align 8 dereferenceable(8) %n) local_unnamed_addr #3 align 2 personality ptr @__gxx_personality_v0 {
entry:
  %ref.tmp = alloca %"class.cvc5::internal::TypeNode", align 8
  %ss = alloca %"class.std::__cxx11::basic_stringstream", align 8
  %ref.tmp5 = alloca %"class.std::__cxx11::basic_string", align 8
  call void @_ZNK4cvc58internal12NodeTemplateILb1EE7getTypeEb(ptr nonnull sret(%"class.cvc5::internal::TypeNode") align 8 %ref.tmp, ptr noundef nonnull align 8 dereferenceable(8) %n, i1 noundef zeroext false)
  %0 = load ptr, ptr %ref.tmp, align 8
  %d_kind.i.i = getelementptr inbounds i8, ptr %0, i64 8
  %bf.load.i.i = load i16, ptr %d_kind.i.i, align 8
  %bf.clear.i.i = and i16 %bf.load.i.i, 1023
  %cmp.i = icmp eq i16 %bf.clear.i.i, 12
  br i1 %cmp.i, label %land.rhs.i, label %invoke.cont

land.rhs.i:                                       ; preds = %entry
  %call.i.i4 = invoke noundef nonnull align 4 dereferenceable(4) ptr @_ZNK4cvc58internal4expr9NodeValue8getConstINS0_12TypeConstantEEERKT_v(ptr noundef nonnull align 8 dereferenceable(16) %0)
          to label %call.i.i.noexc unwind label %lpad

call.i.i.noexc:                                   ; preds = %land.rhs.i
  %1 = load i32, ptr %call.i.i4, align 4
  %cmp3.i = icmp eq i32 %1, 2
  %.pre = load ptr, ptr %ref.tmp, align 8
  br label %invoke.cont

invoke.cont:                                      ; preds = %call.i.i.noexc, %entry
  %2 = phi ptr [ %0, %entry ], [ %.pre, %call.i.i.noexc ]
  %3 = phi i1 [ false, %entry ], [ %cmp3.i, %call.i.i.noexc ]
  %bf.load.i.i5 = load i64, ptr %2, align 8
  %4 = and i64 %bf.load.i.i5, 1152920405095219200
  %cmp.not.i.i = icmp eq i64 %4, 1152920405095219200
  br i1 %cmp.not.i.i, label %_ZN4cvc58internal8TypeNodeD2Ev.exit, label %if.then.i.i

if.then.i.i:                                      ; preds = %invoke.cont
  %bf.value.i.i = add i64 %bf.load.i.i5, 1152920405095219200
  %bf.shl.i.i = and i64 %bf.value.i.i, 1152920405095219200
  %bf.clear7.i.i = and i64 %bf.load.i.i5, -1152920405095219201
  %bf.set.i.i = or disjoint i64 %bf.shl.i.i, %bf.clear7.i.i
  store i64 %bf.set.i.i, ptr %2, align 8
  %cmp12.i.i = icmp eq i64 %bf.shl.i.i, 0
  br i1 %cmp12.i.i, label %if.then13.i.i, label %_ZN4cvc58internal8TypeNodeD2Ev.exit

if.then13.i.i:                                    ; preds = %if.then.i.i
  invoke void @_ZN4cvc58internal4expr9NodeValue15markForDeletionEv(ptr noundef nonnull align 8 dereferenceable(16) %2)
          to label %_ZN4cvc58internal8TypeNodeD2Ev.exit unwind label %terminate.lpad.i

terminate.lpad.i:                                 ; preds = %if.then13.i.i
  %5 = landingpad { ptr, i32 }
          catch ptr null
  %6 = extractvalue { ptr, i32 } %5, 0
  call void @__clang_call_terminate(ptr %6) #13
  unreachable

_ZN4cvc58internal8TypeNodeD2Ev.exit:              ; preds = %invoke.cont, %if.then.i.i, %if.then13.i.i
  br i1 %3, label %if.end, label %if.then

if.then:                                          ; preds = %_ZN4cvc58internal8TypeNodeD2Ev.exit
  call void @_ZNSt7__cxx1118basic_stringstreamIcSt11char_traitsIcESaIcEEC1Ev(ptr noundef nonnull align 8 dereferenceable(128) %ss)
  %add.ptr = getelementptr inbounds i8, ptr %ss, i64 16
  %call4 = invoke noundef nonnull align 8 dereferenceable(8) ptr @_ZStlsISt11char_traitsIcEERSt13basic_ostreamIcT_ES5_PKc(ptr noundef nonnull align 8 dereferenceable(8) %add.ptr, ptr noundef nonnull @.str.2)
          to label %invoke.cont3 unwind label %lpad2

invoke.cont3:                                     ; preds = %if.then
  %exception = call ptr @__cxa_allocate_exception(i64 40) #14
  invoke void @_ZNKSt7__cxx1118basic_stringstreamIcSt11char_traitsIcESaIcEE3strEv(ptr nonnull sret(%"class.std::__cxx11::basic_string") align 8 %ref.tmp5, ptr noundef nonnull align 8 dereferenceable(128) %ss)
          to label %invoke.cont7 unwind label %ehcleanup.thread

invoke.cont7:                                     ; preds = %invoke.cont3
  invoke void @_ZN4cvc58internal14LogicExceptionC2ERKNSt7__cxx1112basic_stringIcSt11char_traitsIcESaIcEEE(ptr noundef nonnull align 8 dereferenceable(40) %exception, ptr noundef nonnull align 8 dereferenceable(32) %ref.tmp5)
          to label %invoke.cont9 unwind label %ehcleanup.thread9

ehcleanup.thread9:                                ; preds = %invoke.cont7
  %7 = landingpad { ptr, i32 }
          cleanup
  call void @_ZNSt7__cxx1112basic_stringIcSt11char_traitsIcESaIcEED1Ev(ptr noundef nonnull align 8 dereferenceable(32) %ref.tmp5) #14
  br label %cleanup.action

invoke.cont9:                                     ; preds = %invoke.cont7
  invoke void @__cxa_throw(ptr nonnull %exception, ptr nonnull @_ZTIN4cvc58internal14LogicExceptionE, ptr nonnull @_ZN4cvc58internal14LogicExceptionD2Ev) #17
          to label %unreachable unwind label %ehcleanup

lpad:                                             ; preds = %land.rhs.i
  %8 = landingpad { ptr, i32 }
          cleanup
  call void @_ZN4cvc58internal8TypeNodeD2Ev(ptr noundef nonnull align 8 dereferenceable(8) %ref.tmp) #14
  br label %eh.resume

lpad2:                                            ; preds = %if.then
  %9 = landingpad { ptr, i32 }
          cleanup
  br label %ehcleanup10

ehcleanup.thread:                                 ; preds = %invoke.cont3
  %10 = landingpad { ptr, i32 }
          cleanup
  br label %cleanup.action

ehcleanup:                                        ; preds = %invoke.cont9
  %11 = landingpad { ptr, i32 }
          cleanup
  call void @_ZNSt7__cxx1112basic_stringIcSt11char_traitsIcESaIcEED1Ev(ptr noundef nonnull align 8 dereferenceable(32) %ref.tmp5) #14
  br label %ehcleanup10

cleanup.action:                                   ; preds = %ehcleanup.thread9, %ehcleanup.thread
  %.pn8 = phi { ptr, i32 } [ %10, %ehcleanup.thread ], [ %7, %ehcleanup.thread9 ]
  call void @__cxa_free_exception(ptr %exception) #14
  br label %ehcleanup10

ehcleanup10:                                      ; preds = %ehcleanup, %cleanup.action, %lpad2
  %.pn.pn = phi { ptr, i32 } [ %.pn8, %cleanup.action ], [ %11, %ehcleanup ], [ %9, %lpad2 ]
  call void @_ZNSt7__cxx1118basic_stringstreamIcSt11char_traitsIcESaIcEED1Ev(ptr noundef nonnull align 8 dereferenceable(128) %ss) #14
  br label %eh.resume

if.end:                                           ; preds = %_ZN4cvc58internal8TypeNodeD2Ev.exit
  ret void

eh.resume:                                        ; preds = %ehcleanup10, %lpad
  %.pn.pn.pn = phi { ptr, i32 } [ %.pn.pn, %ehcleanup10 ], [ %8, %lpad ]
  resume { ptr, i32 } %.pn.pn.pn

unreachable:                                      ; preds = %invoke.cont9
  unreachable
}